target datalayout = "e-m:e-p270:32:32-p271:32:32-p272:64:64-i64:64-i128:128-f80:128-n8:16:32:64-S128"
target triple = "x86_64-pc-linux-gnu"

@serverinfo_sct_seen = internal global i32 0, align 4
@serverinfo_tack_seen = internal global i32 0, align 4
@serverinfo_other_seen = internal global i32 0, align 4

; Function Attrs: nounwind uwtable
define internal i32 @serverinfo_cli_parse_cb(ptr noundef %0, i32 noundef %1, ptr noundef %2, i64 noundef %3, ptr noundef %4, ptr noundef %5) #0 {
  %7 = alloca ptr, align 8
  %8 = alloca i32, align 4
  %9 = alloca ptr, align 8
  %10 = alloca i64, align 8
  %11 = alloca ptr, align 8
  %12 = alloca ptr, align 8
  store ptr %0, ptr %7, align 8, !tbaa !17
  store i32 %1, ptr %8, align 4, !tbaa !4
  store ptr %2, ptr %9, align 8, !tbaa !11
  store i64 %3, ptr %10, align 8, !tbaa !19
  store ptr %4, ptr %11, align 8, !tbaa !59
  store ptr %5, ptr %12, align 8, !tbaa !53
  %13 = load i32, ptr %8, align 4, !tbaa !4
  %14 = icmp eq i32 %13, 18
  br i1 %14, label %15, label %18

15:                                               ; preds = %6
  %16 = load i32, ptr @serverinfo_sct_seen, align 4, !tbaa !4
  %17 = add nsw i32 %16, 1
  store i32 %17, ptr @serverinfo_sct_seen, align 4, !tbaa !4
  br label %28

18:                                               ; preds = %6
  %19 = load i32, ptr %8, align 4, !tbaa !4
  %20 = icmp eq i32 %19, 62208
  br i1 %20, label %21, label %24

21:                                               ; preds = %18
  %22 = load i32, ptr @serverinfo_tack_seen, align 4, !tbaa !4
  %23 = add nsw i32 %22, 1
  store i32 %23, ptr @serverinfo_tack_seen, align 4, !tbaa !4
  br label %27

24:                                               ; preds = %18
  %25 = load i32, ptr @serverinfo_other_seen, align 4, !tbaa !4
  %26 = add nsw i32 %25, 1
  store i32 %26, ptr @serverinfo_other_seen, align 4, !tbaa !4
  br label %27

27:                                               ; preds = %24, %21
  br label %28

28:                                               ; preds = %27, %15
  ret i32 1
}