; Function Attrs: mustprogress nofree norecurse nosync nounwind willreturn memory(readwrite, inaccessiblemem: none) uwtable
define internal noundef i32 @serverinfo_cli_parse_cb(ptr readnone captures(none) %0, i32 noundef %1, ptr readnone captures(none) %2, i64 %3, ptr readnone captures(none) %4, ptr readnone captures(none) %5) #10 {
  %switch.selectcmp = icmp eq i32 %1, 62208
  %switch.select = select i1 %switch.selectcmp, ptr @serverinfo_tack_seen, ptr @serverinfo_other_seen
  %switch.selectcmp4 = icmp eq i32 %1, 18
  %switch.select5 = select i1 %switch.selectcmp4, ptr @serverinfo_sct_seen, ptr %switch.select
  %7 = load i32, ptr %switch.select5, align 4, !tbaa !4
  %8 = add nsw i32 %7, 1
  store i32 %8, ptr %switch.select5, align 4, !tbaa !4
  ret i32 1
}